target datalayout = "e-m:e-p270:32:32-p271:32:32-p272:64:64-i64:64-i128:128-f80:128-n8:16:32:64-S128"
target triple = "x86_64-unknown-linux-gnu"

%"class.arrow::Status" = type { ptr }
%"class.std::__cxx11::basic_string" = type { %"struct.std::__cxx11::basic_string<char>::_Alloc_hider", i64, %union.anon }
%"struct.std::__cxx11::basic_string<char>::_Alloc_hider" = type { ptr }
%union.anon = type { i64, [8 x i8] }
%"class.arrow::(anonymous namespace)::FormatStringParser" = type { %"class.std::basic_string_view", i64 }
%"class.std::basic_string_view" = type { i64, ptr }
%"class.arrow::util::detail::StringStreamWrapper" = type { %"class.std::unique_ptr.211", ptr }
%"class.std::unique_ptr.211" = type { %"struct.std::__uniq_ptr_data.212" }
%"struct.std::__uniq_ptr_data.212" = type { %"class.std::__uniq_ptr_impl.213" }
%"class.std::__uniq_ptr_impl.213" = type { %"class.std::tuple.214" }
%"class.std::tuple.214" = type { %"struct.std::_Tuple_impl.215" }
%"struct.std::_Tuple_impl.215" = type { %"struct.std::_Head_base.218" }
%"struct.std::_Head_base.218" = type { ptr }

@.str.92 = private unnamed_addr constant [2 x i8] c"'\00", align 1
@.str.97 = private unnamed_addr constant [40 x i8] c"Invalid or unsupported format string: '\00", align 1

; Function Attrs: mustprogress nounwind uwtable
define linkonce_odr noundef i64 @_ZNKSt17basic_string_viewIcSt11char_traitsIcEE4sizeEv(ptr noundef nonnull align 8 dereferenceable(16) %this) #1 comdat align 2 {
entry:
  %this.addr = alloca ptr, align 8
  store ptr %this, ptr %this.addr, align 8
  %this1 = load ptr, ptr %this.addr, align 8
  %_M_len = getelementptr inbounds %"class.std::basic_string_view", ptr %this1, i32 0, i32 0
  %0 = load i64, ptr %_M_len, align 8
  ret i64 %0
}

; Function Attrs: mustprogress nounwind uwtable
define linkonce_odr noundef ptr @_ZNKSt17basic_string_viewIcSt11char_traitsIcEE4dataEv(ptr noundef nonnull align 8 dereferenceable(16) %this) #1 comdat align 2 {
entry:
  %this.addr = alloca ptr, align 8
  store ptr %this, ptr %this.addr, align 8
  %this1 = load ptr, ptr %this.addr, align 8
  %_M_str = getelementptr inbounds %"class.std::basic_string_view", ptr %this1, i32 0, i32 1
  %0 = load ptr, ptr %_M_str, align 8
  ret ptr %0
}

; Function Attrs: mustprogress uwtable
define linkonce_odr noundef nonnull align 8 dereferenceable(8) ptr @_ZStlsIcSt11char_traitsIcEERSt13basic_ostreamIT_T0_ES6_St17basic_string_viewIS3_S4_E(ptr noundef nonnull align 8 dereferenceable(8) %__os, i64 %__str.coerce0, ptr %__str.coerce1) #0 comdat {
entry:
  %__str = alloca %"class.std::basic_string_view", align 8
  %__os.addr = alloca ptr, align 8
  %0 = getelementptr inbounds { i64, ptr }, ptr %__str, i32 0, i32 0
  store i64 %__str.coerce0, ptr %0, align 8
  %1 = getelementptr inbounds { i64, ptr }, ptr %__str, i32 0, i32 1
  store ptr %__str.coerce1, ptr %1, align 8
  store ptr %__os, ptr %__os.addr, align 8
  %2 = load ptr, ptr %__os.addr, align 8
  %call = call noundef ptr @_ZNKSt17basic_string_viewIcSt11char_traitsIcEE4dataEv(ptr noundef nonnull align 8 dereferenceable(16) %__str) #12
  %call1 = call noundef i64 @_ZNKSt17basic_string_viewIcSt11char_traitsIcEE4sizeEv(ptr noundef nonnull align 8 dereferenceable(16) %__str) #12
  %call2 = call noundef nonnull align 8 dereferenceable(8) ptr @_ZSt16__ostream_insertIcSt11char_traitsIcEERSt13basic_ostreamIT_T0_ES6_PKS3_l(ptr noundef nonnull align 8 dereferenceable(8) %2, ptr noundef %call, i64 noundef %call1)
  ret ptr %call2
}

; Function Attrs: mustprogress uwtable
define linkonce_odr void @_ZN5arrow4util22StringBuilderRecursiveIRA2_KcEEvRSoOT_(ptr noundef nonnull align 8 dereferenceable(8) %stream, ptr noundef nonnull align 1 dereferenceable(2) %head) #0 comdat {
entry:
  %stream.addr = alloca ptr, align 8
  %head.addr = alloca ptr, align 8
  store ptr %stream, ptr %stream.addr, align 8
  store ptr %head, ptr %head.addr, align 8
  %0 = load ptr, ptr %stream.addr, align 8
  %1 = load ptr, ptr %head.addr, align 8
  %arraydecay = getelementptr inbounds [2 x i8], ptr %1, i64 0, i64 0
  %call = call noundef nonnull align 8 dereferenceable(8) ptr @_ZStlsISt11char_traitsIcEERSt13basic_ostreamIcT_ES5_PKc(ptr noundef nonnull align 8 dereferenceable(8) %0, ptr noundef %arraydecay)
  ret void
}

; Function Attrs: mustprogress uwtable
define linkonce_odr void @_ZN5arrow4util22StringBuilderRecursiveIRSt17basic_string_viewIcSt11char_traitsIcEEEEvRSoOT_(ptr noundef nonnull align 8 dereferenceable(8) %stream, ptr noundef nonnull align 8 dereferenceable(16) %head) #0 comdat {
entry:
  %stream.addr = alloca ptr, align 8
  %head.addr = alloca ptr, align 8
  %agg.tmp = alloca %"class.std::basic_string_view", align 8
  store ptr %stream, ptr %stream.addr, align 8
  store ptr %head, ptr %head.addr, align 8
  %0 = load ptr, ptr %stream.addr, align 8
  %1 = load ptr, ptr %head.addr, align 8
  call void @llvm.memcpy.p0.p0.i64(ptr align 8 %agg.tmp, ptr align 8 %1, i64 16, i1 false)
  %2 = getelementptr inbounds { i64, ptr }, ptr %agg.tmp, i32 0, i32 0
  %3 = load i64, ptr %2, align 8
  %4 = getelementptr inbounds { i64, ptr }, ptr %agg.tmp, i32 0, i32 1
  %5 = load ptr, ptr %4, align 8
  %call = call noundef nonnull align 8 dereferenceable(8) ptr @_ZStlsIcSt11char_traitsIcEERSt13basic_ostreamIT_T0_ES6_St17basic_string_viewIS3_S4_E(ptr noundef nonnull align 8 dereferenceable(8) %0, i64 %3, ptr %5)
  ret void
}

; Function Attrs: mustprogress uwtable
define linkonce_odr void @_ZN5arrow4util22StringBuilderRecursiveIRSt17basic_string_viewIcSt11char_traitsIcEEJRA2_KcEEEvRSoOT_DpOT0_(ptr noundef nonnull align 8 dereferenceable(8) %stream, ptr noundef nonnull align 8 dereferenceable(16) %head, ptr noundef nonnull align 1 dereferenceable(2) %tail) #0 comdat {
entry:
  %stream.addr = alloca ptr, align 8
  %head.addr = alloca ptr, align 8
  %tail.addr = alloca ptr, align 8
  store ptr %stream, ptr %stream.addr, align 8
  store ptr %head, ptr %head.addr, align 8
  store ptr %tail, ptr %tail.addr, align 8
  %0 = load ptr, ptr %stream.addr, align 8
  %1 = load ptr, ptr %head.addr, align 8
  call void @_ZN5arrow4util22StringBuilderRecursiveIRSt17basic_string_viewIcSt11char_traitsIcEEEEvRSoOT_(ptr noundef nonnull align 8 dereferenceable(8) %0, ptr noundef nonnull align 8 dereferenceable(16) %1)
  %2 = load ptr, ptr %stream.addr, align 8
  %3 = load ptr, ptr %tail.addr, align 8
  call void @_ZN5arrow4util22StringBuilderRecursiveIRA2_KcEEvRSoOT_(ptr noundef nonnull align 8 dereferenceable(8) %2, ptr noundef nonnull align 1 dereferenceable(2) %3)
  ret void
}

; Function Attrs: mustprogress uwtable
define linkonce_odr void @_ZN5arrow4util22StringBuilderRecursiveIRA40_KcEEvRSoOT_(ptr noundef nonnull align 8 dereferenceable(8) %stream, ptr noundef nonnull align 1 dereferenceable(40) %head) #0 comdat {
entry:
  %stream.addr = alloca ptr, align 8
  %head.addr = alloca ptr, align 8
  store ptr %stream, ptr %stream.addr, align 8
  store ptr %head, ptr %head.addr, align 8
  %0 = load ptr, ptr %stream.addr, align 8
  %1 = load ptr, ptr %head.addr, align 8
  %arraydecay = getelementptr inbounds [40 x i8], ptr %1, i64 0, i64 0
  %call = call noundef nonnull align 8 dereferenceable(8) ptr @_ZStlsISt11char_traitsIcEERSt13basic_ostreamIcT_ES5_PKc(ptr noundef nonnull align 8 dereferenceable(8) %0, ptr noundef %arraydecay)
  ret void
}

; Function Attrs: mustprogress uwtable
define linkonce_odr void @_ZN5arrow4util22StringBuilderRecursiveIRA40_KcJRSt17basic_string_viewIcSt11char_traitsIcEERA2_S2_EEEvRSoOT_DpOT0_(ptr noundef nonnull align 8 dereferenceable(8) %stream, ptr noundef nonnull align 1 dereferenceable(40) %head, ptr noundef nonnull align 8 dereferenceable(16) %tail, ptr noundef nonnull align 1 dereferenceable(2) %tail1) #0 comdat {
entry:
  %stream.addr = alloca ptr, align 8
  %head.addr = alloca ptr, align 8
  %tail.addr = alloca ptr, align 8
  %tail.addr2 = alloca ptr, align 8
  store ptr %stream, ptr %stream.addr, align 8
  store ptr %head, ptr %head.addr, align 8
  store ptr %tail, ptr %tail.addr, align 8
  store ptr %tail1, ptr %tail.addr2, align 8
  %0 = load ptr, ptr %stream.addr, align 8
  %1 = load ptr, ptr %head.addr, align 8
  call void @_ZN5arrow4util22StringBuilderRecursiveIRA40_KcEEvRSoOT_(ptr noundef nonnull align 8 dereferenceable(8) %0, ptr noundef nonnull align 1 dereferenceable(40) %1)
  %2 = load ptr, ptr %stream.addr, align 8
  %3 = load ptr, ptr %tail.addr, align 8
  %4 = load ptr, ptr %tail.addr2, align 8
  call void @_ZN5arrow4util22StringBuilderRecursiveIRSt17basic_string_viewIcSt11char_traitsIcEEJRA2_KcEEEvRSoOT_DpOT0_(ptr noundef nonnull align 8 dereferenceable(8) %2, ptr noundef nonnull align 8 dereferenceable(16) %3, ptr noundef nonnull align 1 dereferenceable(2) %4)
  ret void
}

; Function Attrs: mustprogress nounwind uwtable
define linkonce_odr noundef nonnull align 8 dereferenceable(8) ptr @_ZN5arrow4util6detail19StringStreamWrapper6streamEv(ptr noundef nonnull align 8 dereferenceable(16) %this) #1 comdat align 2 {
entry:
  %this.addr = alloca ptr, align 8
  store ptr %this, ptr %this.addr, align 8
  %this1 = load ptr, ptr %this.addr, align 8
  %ostream_ = getelementptr inbounds %"class.arrow::util::detail::StringStreamWrapper", ptr %this1, i32 0, i32 1
  %0 = load ptr, ptr %ostream_, align 8
  ret ptr %0
}

; Function Attrs: mustprogress uwtable
define linkonce_odr void @_ZN5arrow4util13StringBuilderIJRA40_KcRSt17basic_string_viewIcSt11char_traitsIcEERA2_S2_EEENSt7__cxx1112basic_stringIcS7_SaIcEEEDpOT_(ptr noalias sret(%"class.std::__cxx11::basic_string") align 8 %agg.result, ptr noundef nonnull align 1 dereferenceable(40) %args, ptr noundef nonnull align 8 dereferenceable(16) %args1, ptr noundef nonnull align 1 dereferenceable(2) %args3) #0 comdat personality ptr @__gxx_personality_v0 {
entry:
  %result.ptr = alloca ptr, align 8
  %args.addr = alloca ptr, align 8
  %args.addr2 = alloca ptr, align 8
  %args.addr4 = alloca ptr, align 8
  %ss = alloca %"class.arrow::util::detail::StringStreamWrapper", align 8
  %exn.slot = alloca ptr, align 8
  %ehselector.slot = alloca i32, align 4
  store ptr %agg.result, ptr %result.ptr, align 8
  store ptr %args, ptr %args.addr, align 8
  store ptr %args1, ptr %args.addr2, align 8
  store ptr %args3, ptr %args.addr4, align 8
  call void @_ZN5arrow4util6detail19StringStreamWrapperC1Ev(ptr noundef nonnull align 8 dereferenceable(16) %ss)
  %call = call noundef nonnull align 8 dereferenceable(8) ptr @_ZN5arrow4util6detail19StringStreamWrapper6streamEv(ptr noundef nonnull align 8 dereferenceable(16) %ss)
  %0 = load ptr, ptr %args.addr, align 8
  %1 = load ptr, ptr %args.addr2, align 8
  %2 = load ptr, ptr %args.addr4, align 8
  invoke void @_ZN5arrow4util22StringBuilderRecursiveIRA40_KcJRSt17basic_string_viewIcSt11char_traitsIcEERA2_S2_EEEvRSoOT_DpOT0_(ptr noundef nonnull align 8 dereferenceable(8) %call, ptr noundef nonnull align 1 dereferenceable(40) %0, ptr noundef nonnull align 8 dereferenceable(16) %1, ptr noundef nonnull align 1 dereferenceable(2) %2)
          to label %invoke.cont unwind label %lpad

invoke.cont:                                      ; preds = %entry
  invoke void @_ZN5arrow4util6detail19StringStreamWrapper3strB5cxx11Ev(ptr sret(%"class.std::__cxx11::basic_string") align 8 %agg.result, ptr noundef nonnull align 8 dereferenceable(16) %ss)
          to label %invoke.cont5 unwind label %lpad

invoke.cont5:                                     ; preds = %invoke.cont
  call void @_ZN5arrow4util6detail19StringStreamWrapperD1Ev(ptr noundef nonnull align 8 dereferenceable(16) %ss) #12
  ret void

lpad:                                             ; preds = %invoke.cont, %entry
  %3 = landingpad { ptr, i32 }
          cleanup
  %4 = extractvalue { ptr, i32 } %3, 0
  store ptr %4, ptr %exn.slot, align 8
  %5 = extractvalue { ptr, i32 } %3, 1
  store i32 %5, ptr %ehselector.slot, align 4
  call void @_ZN5arrow4util6detail19StringStreamWrapperD1Ev(ptr noundef nonnull align 8 dereferenceable(16) %ss) #12
  br label %eh.resume

eh.resume:                                        ; preds = %lpad
  %exn = load ptr, ptr %exn.slot, align 8
  %sel = load i32, ptr %ehselector.slot, align 4
  %lpad.val = insertvalue { ptr, i32 } poison, ptr %exn, 0
  %lpad.val6 = insertvalue { ptr, i32 } %lpad.val, i32 %sel, 1
  resume { ptr, i32 } %lpad.val6
}

; Function Attrs: mustprogress uwtable
define linkonce_odr void @_ZN5arrow6Status8FromArgsIJRA40_KcRSt17basic_string_viewIcSt11char_traitsIcEERA2_S2_EEES0_NS_10StatusCodeEDpOT_(ptr noalias sret(%"class.arrow::Status") align 8 %agg.result, i8 noundef signext %code, ptr noundef nonnull align 1 dereferenceable(40) %args, ptr noundef nonnull align 8 dereferenceable(16) %args1, ptr noundef nonnull align 1 dereferenceable(2) %args3) #0 comdat align 2 personality ptr @__gxx_personality_v0 {
entry:
  %result.ptr = alloca ptr, align 8
  %code.addr = alloca i8, align 1
  %args.addr = alloca ptr, align 8
  %args.addr2 = alloca ptr, align 8
  %args.addr4 = alloca ptr, align 8
  %ref.tmp = alloca %"class.std::__cxx11::basic_string", align 8
  %exn.slot = alloca ptr, align 8
  %ehselector.slot = alloca i32, align 4
  store ptr %agg.result, ptr %result.ptr, align 8
  store i8 %code, ptr %code.addr, align 1
  store ptr %args, ptr %args.addr, align 8
  store ptr %args1, ptr %args.addr2, align 8
  store ptr %args3, ptr %args.addr4, align 8
  %0 = load i8, ptr %code.addr, align 1
  %1 = load ptr, ptr %args.addr, align 8
  %2 = load ptr, ptr %args.addr2, align 8
  %3 = load ptr, ptr %args.addr4, align 8
  call void @_ZN5arrow4util13StringBuilderIJRA40_KcRSt17basic_string_viewIcSt11char_traitsIcEERA2_S2_EEENSt7__cxx1112basic_stringIcS7_SaIcEEEDpOT_(ptr sret(%"class.std::__cxx11::basic_string") align 8 %ref.tmp, ptr noundef nonnull align 1 dereferenceable(40) %1, ptr noundef nonnull align 8 dereferenceable(16) %2, ptr noundef nonnull align 1 dereferenceable(2) %3)
  invoke void @_ZN5arrow6StatusC1ENS_10StatusCodeERKNSt7__cxx1112basic_stringIcSt11char_traitsIcESaIcEEE(ptr noundef nonnull align 8 dereferenceable(8) %agg.result, i8 noundef signext %0, ptr noundef nonnull align 8 dereferenceable(32) %ref.tmp)
          to label %invoke.cont unwind label %lpad

invoke.cont:                                      ; preds = %entry
  call void @_ZNSt7__cxx1112basic_stringIcSt11char_traitsIcESaIcEED1Ev(ptr noundef nonnull align 8 dereferenceable(32) %ref.tmp) #12
  ret void

lpad:                                             ; preds = %entry
  %4 = landingpad { ptr, i32 }
          cleanup
  %5 = extractvalue { ptr, i32 } %4, 0
  store ptr %5, ptr %exn.slot, align 8
  %6 = extractvalue { ptr, i32 } %4, 1
  store i32 %6, ptr %ehselector.slot, align 4
  call void @_ZNSt7__cxx1112basic_stringIcSt11char_traitsIcESaIcEED1Ev(ptr noundef nonnull align 8 dereferenceable(32) %ref.tmp) #12
  br label %eh.resume

eh.resume:                                        ; preds = %lpad
  %exn = load ptr, ptr %exn.slot, align 8
  %sel = load i32, ptr %ehselector.slot, align 4
  %lpad.val = insertvalue { ptr, i32 } poison, ptr %exn, 0
  %lpad.val5 = insertvalue { ptr, i32 } %lpad.val, i32 %sel, 1
  resume { ptr, i32 } %lpad.val5
}

; Function Attrs: mustprogress uwtable
define linkonce_odr void @_ZN5arrow6Status7InvalidIJRA40_KcRSt17basic_string_viewIcSt11char_traitsIcEERA2_S2_EEES0_DpOT_(ptr noalias sret(%"class.arrow::Status") align 8 %agg.result, ptr noundef nonnull align 1 dereferenceable(40) %args, ptr noundef nonnull align 8 dereferenceable(16) %args1, ptr noundef nonnull align 1 dereferenceable(2) %args3) #0 comdat align 2 {
entry:
  %result.ptr = alloca ptr, align 8
  %args.addr = alloca ptr, align 8
  %args.addr2 = alloca ptr, align 8
  %args.addr4 = alloca ptr, align 8
  store ptr %agg.result, ptr %result.ptr, align 8
  store ptr %args, ptr %args.addr, align 8
  store ptr %args1, ptr %args.addr2, align 8
  store ptr %args3, ptr %args.addr4, align 8
  %0 = load ptr, ptr %args.addr, align 8
  %1 = load ptr, ptr %args.addr2, align 8
  %2 = load ptr, ptr %args.addr4, align 8
  call void @_ZN5arrow6Status8FromArgsIJRA40_KcRSt17basic_string_viewIcSt11char_traitsIcEERA2_S2_EEES0_NS_10StatusCodeEDpOT_(ptr sret(%"class.arrow::Status") align 8 %agg.result, i8 noundef signext 4, ptr noundef nonnull align 1 dereferenceable(40) %0, ptr noundef nonnull align 8 dereferenceable(16) %1, ptr noundef nonnull align 1 dereferenceable(2) %2)
  ret void
}

; Function Attrs: mustprogress uwtable
define internal void @_ZN5arrow12_GLOBAL__N_119InvalidFormatStringESt17basic_string_viewIcSt11char_traitsIcEE(ptr noalias sret(%"class.arrow::Status") align 8 %agg.result, i64 %v.coerce0, ptr %v.coerce1) #0 {
entry:
  %result.ptr = alloca ptr, align 8
  %v = alloca %"class.std::basic_string_view", align 8
  store ptr %agg.result, ptr %result.ptr, align 8
  %0 = getelementptr inbounds { i64, ptr }, ptr %v, i32 0, i32 0
  store i64 %v.coerce0, ptr %0, align 8
  %1 = getelementptr inbounds { i64, ptr }, ptr %v, i32 0, i32 1
  store ptr %v.coerce1, ptr %1, align 8
  call void @_ZN5arrow6Status7InvalidIJRA40_KcRSt17basic_string_viewIcSt11char_traitsIcEERA2_S2_EEES0_DpOT_(ptr sret(%"class.arrow::Status") align 8 %agg.result, ptr noundef nonnull align 1 dereferenceable(40) @.str.97, ptr noundef nonnull align 8 dereferenceable(16) %v, ptr noundef nonnull align 1 dereferenceable(2) @.str.92)
  ret void
}

; Function Attrs: mustprogress uwtable
define internal void @_ZN5arrow12_GLOBAL__N_118FormatStringParser7InvalidEv(ptr noalias sret(%"class.arrow::Status") align 8 %agg.result, ptr noundef nonnull align 8 dereferenceable(24) %this) #0 align 2 {
entry:
  %result.ptr = alloca ptr, align 8
  %this.addr = alloca ptr, align 8
  %agg.tmp = alloca %"class.std::basic_string_view", align 8
  store ptr %agg.result, ptr %result.ptr, align 8
  store ptr %this, ptr %this.addr, align 8
  %this1 = load ptr, ptr %this.addr, align 8
  %view_ = getelementptr inbounds %"class.arrow::(anonymous namespace)::FormatStringParser", ptr %this1, i32 0, i32 0
  call void @llvm.memcpy.p0.p0.i64(ptr align 8 %agg.tmp, ptr align 8 %view_, i64 16, i1 false)
  %0 = getelementptr inbounds { i64, ptr }, ptr %agg.tmp, i32 0, i32 0
  %1 = load i64, ptr %0, align 8
  %2 = getelementptr inbounds { i64, ptr }, ptr %agg.tmp, i32 0, i32 1
  %3 = load ptr, ptr %2, align 8
  call void @_ZN5arrow12_GLOBAL__N_119InvalidFormatStringESt17basic_string_viewIcSt11char_traitsIcEE(ptr sret(%"class.arrow::Status") align 8 %agg.result, i64 %1, ptr %3)
  ret void
}