; Function Attrs: mustprogress uwtable
define internal fastcc void @_ZN5arrow12_GLOBAL__N_118FormatStringParser7InvalidEv(ptr noalias align 8 %agg.result, i64 %this.0.val, ptr %this.8.val) unnamed_addr #0 align 2 personality ptr @__gxx_personality_v0 {
entry:
  %ss.i.i = alloca %"class.arrow::util::detail::StringStreamWrapper", align 8
  %ref.tmp.i.i.i = alloca %"class.std::__cxx11::basic_string", align 8
  call void @llvm.lifetime.start.p0(i64 32, ptr nonnull %ref.tmp.i.i.i), !noalias !1384
  call void @llvm.lifetime.start.p0(i64 16, ptr nonnull %ss.i.i), !noalias !1389
  call void @_ZN5arrow4util6detail19StringStreamWrapperC1Ev(ptr noundef nonnull align 8 dereferenceable(16) %ss.i.i), !noalias !1390
  %ostream_.i.i.i = getelementptr inbounds i8, ptr %ss.i.i, i64 8
  %0 = load ptr, ptr %ostream_.i.i.i, align 8, !noalias !1390
  %call.i.i1.i.i = invoke noundef nonnull align 8 dereferenceable(8) ptr @_ZStlsISt11char_traitsIcEERSt13basic_ostreamIcT_ES5_PKc(ptr noundef nonnull align 8 dereferenceable(8) %0, ptr noundef nonnull @.str.97)
          to label %call.i.i.noexc.i.i unwind label %lpad.i.i, !noalias !1390

call.i.i.noexc.i.i:                               ; preds = %entry
  %call2.i.i.i.i2.i.i = invoke noundef nonnull align 8 dereferenceable(8) ptr @_ZSt16__ostream_insertIcSt11char_traitsIcEERSt13basic_ostreamIT_T0_ES6_PKS3_l(ptr noundef nonnull align 8 dereferenceable(8) %0, ptr noundef %this.8.val, i64 noundef %this.0.val)
          to label %call2.i.i.i.i.noexc.i.i unwind label %lpad.i.i, !noalias !1390

call2.i.i.i.i.noexc.i.i:                          ; preds = %call.i.i.noexc.i.i
  %call.i.i.i3.i.i = invoke noundef nonnull align 8 dereferenceable(8) ptr @_ZStlsISt11char_traitsIcEERSt13basic_ostreamIcT_ES5_PKc(ptr noundef nonnull align 8 dereferenceable(8) %0, ptr noundef nonnull @.str.92)
          to label %invoke.cont.i.i unwind label %lpad.i.i, !noalias !1390

invoke.cont.i.i:                                  ; preds = %call2.i.i.i.i.noexc.i.i
  invoke void @_ZN5arrow4util6detail19StringStreamWrapper3strB5cxx11Ev(ptr nonnull sret(%"class.std::__cxx11::basic_string") align 8 %ref.tmp.i.i.i, ptr noundef nonnull align 8 dereferenceable(16) %ss.i.i)
          to label %_ZN5arrow4util13StringBuilderIJRA40_KcRSt17basic_string_viewIcSt11char_traitsIcEERA2_S2_EEENSt7__cxx1112basic_stringIcS7_SaIcEEEDpOT_.exit.i unwind label %lpad.i.i, !noalias !1395

common.resume.i:                                  ; preds = %lpad.i.i.i, %lpad.i.i
  %common.resume.op.i = phi { ptr, i32 } [ %1, %lpad.i.i ], [ %2, %lpad.i.i.i ]
  resume { ptr, i32 } %common.resume.op.i

lpad.i.i:                                         ; preds = %invoke.cont.i.i, %call2.i.i.i.i.noexc.i.i, %call.i.i.noexc.i.i, %entry
  %1 = landingpad { ptr, i32 }
          cleanup
  call void @_ZN5arrow4util6detail19StringStreamWrapperD1Ev(ptr noundef nonnull align 8 dereferenceable(16) %ss.i.i) #24, !noalias !1395
  br label %common.resume.i

_ZN5arrow4util13StringBuilderIJRA40_KcRSt17basic_string_viewIcSt11char_traitsIcEERA2_S2_EEENSt7__cxx1112basic_stringIcS7_SaIcEEEDpOT_.exit.i: ; preds = %invoke.cont.i.i
  call void @_ZN5arrow4util6detail19StringStreamWrapperD1Ev(ptr noundef nonnull align 8 dereferenceable(16) %ss.i.i) #24, !noalias !1395
  call void @llvm.lifetime.end.p0(i64 16, ptr nonnull %ss.i.i), !noalias !1389
  invoke void @_ZN5arrow6StatusC1ENS_10StatusCodeERKNSt7__cxx1112basic_stringIcSt11char_traitsIcESaIcEEE(ptr noundef nonnull align 8 dereferenceable(8) %agg.result, i8 noundef signext 4, ptr noundef nonnull align 8 dereferenceable(32) %ref.tmp.i.i.i)
          to label %_ZN5arrow12_GLOBAL__N_119InvalidFormatStringESt17basic_string_viewIcSt11char_traitsIcEE.exit unwind label %lpad.i.i.i

lpad.i.i.i:                                       ; preds = %_ZN5arrow4util13StringBuilderIJRA40_KcRSt17basic_string_viewIcSt11char_traitsIcEERA2_S2_EEENSt7__cxx1112basic_stringIcS7_SaIcEEEDpOT_.exit.i
  %2 = landingpad { ptr, i32 }
          cleanup
  call void @_ZNSt7__cxx1112basic_stringIcSt11char_traitsIcESaIcEED1Ev(ptr noundef nonnull align 8 dereferenceable(32) %ref.tmp.i.i.i) #24
  br label %common.resume.i

_ZN5arrow12_GLOBAL__N_119InvalidFormatStringESt17basic_string_viewIcSt11char_traitsIcEE.exit: ; preds = %_ZN5arrow4util13StringBuilderIJRA40_KcRSt17basic_string_viewIcSt11char_traitsIcEERA2_S2_EEENSt7__cxx1112basic_stringIcS7_SaIcEEEDpOT_.exit.i
  call void @_ZNSt7__cxx1112basic_stringIcSt11char_traitsIcESaIcEED1Ev(ptr noundef nonnull align 8 dereferenceable(32) %ref.tmp.i.i.i) #24
  call void @llvm.lifetime.end.p0(i64 32, ptr nonnull %ref.tmp.i.i.i), !noalias !1384
  ret void
}